target datalayout = "e-m:e-p270:32:32-p271:32:32-p272:64:64-i64:64-i128:128-f80:128-n8:16:32:64-S128"
target triple = "x86_64-pc-linux-gnu"

%"struct.open_spiel::IIGObservationType" = type { i8, i8, i32 }
%"struct.std::_Rb_tree_header" = type { %"struct.std::_Rb_tree_node_base", i64 }
%"struct.std::_Rb_tree_node_base" = type { i32, ptr, ptr, ptr }
%"class.std::shared_ptr" = type { %"class.std::__shared_ptr" }
%"class.std::__shared_ptr" = type { ptr, %"class.std::__shared_count" }
%"class.std::__shared_count" = type { ptr }
%"class.absl::debian2::optional" = type { %"class.absl::debian2::optional_internal::optional_data" }
%"class.absl::debian2::optional_internal::optional_data" = type { %"class.absl::debian2::optional_internal::optional_data_base" }
%"class.absl::debian2::optional_internal::optional_data_base" = type { %"class.absl::debian2::optional_internal::optional_data_dtor_base" }
%"class.absl::debian2::optional_internal::optional_data_dtor_base" = type { i8, %union.anon.4 }
%union.anon.4 = type { %"struct.open_spiel::IIGObservationType" }
%"class.std::map" = type { %"class.std::_Rb_tree" }
%"class.std::_Rb_tree" = type { %"struct.std::_Rb_tree<std::__cxx11::basic_string<char>, std::pair<const std::__cxx11::basic_string<char>, open_spiel::GameParameter>, std::_Select1st<std::pair<const std::__cxx11::basic_string<char>, open_spiel::GameParameter>>, std::less<std::__cxx11::basic_string<char>>>::_Rb_tree_impl" }
%"struct.std::_Rb_tree<std::__cxx11::basic_string<char>, std::pair<const std::__cxx11::basic_string<char>, open_spiel::GameParameter>, std::_Select1st<std::pair<const std::__cxx11::basic_string<char>, open_spiel::GameParameter>>, std::less<std::__cxx11::basic_string<char>>>::_Rb_tree_impl" = type { [8 x i8], %"struct.std::_Rb_tree_header" }

; Function Attrs: mustprogress nounwind uwtable
define linkonce_odr noundef zeroext i1 @_ZNKSt8_Rb_treeINSt7__cxx1112basic_stringIcSt11char_traitsIcESaIcEEESt4pairIKS5_N10open_spiel13GameParameterEESt10_Select1stISA_ESt4lessIS5_ESaISA_EE5emptyEv(ptr noundef nonnull align 8 dereferenceable(48) %0) #6 comdat align 2 {
  %2 = alloca ptr, align 8
  store ptr %0, ptr %2, align 8
  %3 = load ptr, ptr %2, align 8
  %4 = getelementptr inbounds nuw %"class.std::_Rb_tree", ptr %3, i32 0, i32 0
  %5 = getelementptr inbounds i8, ptr %4, i64 8
  %6 = getelementptr inbounds nuw %"struct.std::_Rb_tree_header", ptr %5, i32 0, i32 1
  %7 = load i64, ptr %6, align 8
  %8 = icmp eq i64 %7, 0
  ret i1 %8
}

; Function Attrs: mustprogress nounwind uwtable
define linkonce_odr noundef zeroext i1 @_ZNKSt3mapINSt7__cxx1112basic_stringIcSt11char_traitsIcESaIcEEEN10open_spiel13GameParameterESt4lessIS5_ESaISt4pairIKS5_S7_EEE5emptyEv(ptr noundef nonnull align 8 dereferenceable(48) %0) #6 comdat align 2 {
  %2 = alloca ptr, align 8
  store ptr %0, ptr %2, align 8
  %3 = load ptr, ptr %2, align 8
  %4 = getelementptr inbounds nuw %"class.std::map", ptr %3, i32 0, i32 0
  %5 = call noundef zeroext i1 @_ZNKSt8_Rb_treeINSt7__cxx1112basic_stringIcSt11char_traitsIcESaIcEEESt4pairIKS5_N10open_spiel13GameParameterEESt10_Select1stISA_ESt4lessIS5_ESaISA_EE5emptyEv(ptr noundef nonnull align 8 dereferenceable(48) %4) #3
  ret i1 %5
}

; Function Attrs: mustprogress uwtable
define void @_ZNK10open_spiel4Game12MakeObserverEN4absl7debian28optionalINS_18IIGObservationTypeEEERKSt3mapINSt7__cxx1112basic_stringIcSt11char_traitsIcESaIcEEENS_13GameParameterESt4lessISC_ESaISt4pairIKSC_SD_EEE(ptr dead_on_unwind noalias writable sret(%"class.std::shared_ptr") align 8 %0, ptr noundef nonnull align 8 dereferenceable(280) %1, i64 %2, i32 %3, ptr noundef nonnull align 8 dereferenceable(48) %4) unnamed_addr #4 align 2 {
  %6 = alloca ptr, align 8
  %7 = alloca %"class.absl::debian2::optional", align 4
  %8 = alloca { i64, i32 }, align 4
  %9 = alloca ptr, align 8
  %10 = alloca ptr, align 8
  %11 = alloca %"class.absl::debian2::optional", align 4
  %12 = alloca { i64, i32 }, align 4
  %13 = alloca %"class.absl::debian2::optional", align 4
  %14 = alloca { i64, i32 }, align 4
  store ptr %0, ptr %6, align 8
  %15 = getelementptr inbounds nuw { i64, i32 }, ptr %8, i32 0, i32 0
  store i64 %2, ptr %15, align 4
  %16 = getelementptr inbounds nuw { i64, i32 }, ptr %8, i32 0, i32 1
  store i32 %3, ptr %16, align 4
  call void @llvm.memcpy.p0.p0.i64(ptr align 4 %7, ptr align 4 %8, i64 12, i1 false)
  store ptr %1, ptr %9, align 8
  store ptr %4, ptr %10, align 8
  %17 = load ptr, ptr %9, align 8
  %18 = load ptr, ptr %10, align 8
  %19 = call noundef zeroext i1 @_ZNKSt3mapINSt7__cxx1112basic_stringIcSt11char_traitsIcESaIcEEEN10open_spiel13GameParameterESt4lessIS5_ESaISt4pairIKS5_S7_EEE5emptyEv(ptr noundef nonnull align 8 dereferenceable(48) %18) #3
  br i1 %19, label %20, label %25

20:                                               ; preds = %5
  call void @llvm.memcpy.p0.p0.i64(ptr align 4 %11, ptr align 4 %7, i64 12, i1 false)
  call void @llvm.memcpy.p0.p0.i64(ptr align 4 %12, ptr align 4 %11, i64 12, i1 false)
  %21 = getelementptr inbounds nuw { i64, i32 }, ptr %12, i32 0, i32 0
  %22 = load i64, ptr %21, align 4
  %23 = getelementptr inbounds nuw { i64, i32 }, ptr %12, i32 0, i32 1
  %24 = load i32, ptr %23, align 4
  call void @_ZNK10open_spiel4Game19MakeBuiltInObserverEN4absl7debian28optionalINS_18IIGObservationTypeEEE(ptr dead_on_unwind writable sret(%"class.std::shared_ptr") align 8 %0, ptr noundef nonnull align 8 dereferenceable(280) %17, i64 %22, i32 %24)
  br label %31

25:                                               ; preds = %5
  call void @llvm.memcpy.p0.p0.i64(ptr align 4 %13, ptr align 4 %7, i64 12, i1 false)
  %26 = load ptr, ptr %10, align 8
  call void @llvm.memcpy.p0.p0.i64(ptr align 4 %14, ptr align 4 %13, i64 12, i1 false)
  %27 = getelementptr inbounds nuw { i64, i32 }, ptr %14, i32 0, i32 0
  %28 = load i64, ptr %27, align 4
  %29 = getelementptr inbounds nuw { i64, i32 }, ptr %14, i32 0, i32 1
  %30 = load i32, ptr %29, align 4
  call void @_ZNK10open_spiel4Game22MakeRegisteredObserverEN4absl7debian28optionalINS_18IIGObservationTypeEEERKSt3mapINSt7__cxx1112basic_stringIcSt11char_traitsIcESaIcEEENS_13GameParameterESt4lessISC_ESaISt4pairIKSC_SD_EEE(ptr dead_on_unwind writable sret(%"class.std::shared_ptr") align 8 %0, ptr noundef nonnull align 8 dereferenceable(280) %17, i64 %28, i32 %30, ptr noundef nonnull align 8 dereferenceable(48) %26)
  br label %31

31:                                               ; preds = %25, %20
  ret void
}