; Function Attrs: mustprogress uwtable
define void @_ZNK10open_spiel4Game12MakeObserverEN4absl7debian28optionalINS_18IIGObservationTypeEEERKSt3mapINSt7__cxx1112basic_stringIcSt11char_traitsIcESaIcEEENS_13GameParameterESt4lessISC_ESaISt4pairIKSC_SD_EEE(ptr dead_on_unwind noalias writable sret(%"class.std::shared_ptr") align 8 %0, ptr noundef nonnull align 8 dereferenceable(280) %1, i64 %2, i32 %3, ptr noundef nonnull align 8 dereferenceable(48) %4) unnamed_addr #3 align 2 {
  %6 = getelementptr inbounds nuw i8, ptr %4, i64 40
  %7 = load i64, ptr %6, align 8
  %8 = icmp eq i64 %7, 0
  br i1 %8, label %9, label %10

9:                                                ; preds = %5
  tail call void @_ZNK10open_spiel4Game19MakeBuiltInObserverEN4absl7debian28optionalINS_18IIGObservationTypeEEE(ptr dead_on_unwind writable sret(%"class.std::shared_ptr") align 8 %0, ptr noundef nonnull align 8 dereferenceable(280) %1, i64 %2, i32 %3)
  br label %11

10:                                               ; preds = %5
  tail call void @_ZNK10open_spiel4Game22MakeRegisteredObserverEN4absl7debian28optionalINS_18IIGObservationTypeEEERKSt3mapINSt7__cxx1112basic_stringIcSt11char_traitsIcESaIcEEENS_13GameParameterESt4lessISC_ESaISt4pairIKSC_SD_EEE(ptr dead_on_unwind writable sret(%"class.std::shared_ptr") align 8 %0, ptr noundef nonnull align 8 dereferenceable(280) %1, i64 %2, i32 %3, ptr noundef nonnull align 8 dereferenceable(48) %4)
  br label %11

11:                                               ; preds = %10, %9
  ret void
}